target datalayout = "e-m:e-p270:32:32-p271:32:32-p272:64:64-i64:64-i128:128-f80:128-n8:16:32:64-S128"
target triple = "x86_64-pc-linux-gnu"

@bench_key = internal thread_local global ptr null, align 8
@bench_iv = internal thread_local global ptr null, align 8
@.str.7 = private unnamed_addr constant [16 x i8] c"AES-128-CBC-enc\00", align 1
@.str.8 = private unnamed_addr constant [16 x i8] c"AES-128-CBC-dec\00", align 1
@.str.9 = private unnamed_addr constant [16 x i8] c"AES-192-CBC-enc\00", align 1
@.str.10 = private unnamed_addr constant [16 x i8] c"AES-192-CBC-dec\00", align 1
@.str.11 = private unnamed_addr constant [16 x i8] c"AES-256-CBC-enc\00", align 1
@.str.12 = private unnamed_addr constant [16 x i8] c"AES-256-CBC-dec\00", align 1

; Function Attrs: nounwind uwtable
define dso_local void @bench_aescbc(i32 noundef %0) #0 {
  %2 = alloca i32, align 4
  store i32 %0, ptr %2, align 4, !tbaa !4
  %3 = load i32, ptr %2, align 4, !tbaa !4
  %4 = call align 8 ptr @llvm.threadlocal.address.p0(ptr align 8 @bench_key)
  %5 = load ptr, ptr %4, align 8, !tbaa !12
  %6 = call align 8 ptr @llvm.threadlocal.address.p0(ptr align 8 @bench_iv)
  %7 = load ptr, ptr %6, align 8, !tbaa !12
  call void @bench_aescbc_internal(i32 noundef %3, ptr noundef %5, i32 noundef 16, ptr noundef %7, ptr noundef @.str.7, ptr noundef @.str.8)
  %8 = load i32, ptr %2, align 4, !tbaa !4
  %9 = call align 8 ptr @llvm.threadlocal.address.p0(ptr align 8 @bench_key)
  %10 = load ptr, ptr %9, align 8, !tbaa !12
  %11 = call align 8 ptr @llvm.threadlocal.address.p0(ptr align 8 @bench_iv)
  %12 = load ptr, ptr %11, align 8, !tbaa !12
  call void @bench_aescbc_internal(i32 noundef %8, ptr noundef %10, i32 noundef 24, ptr noundef %12, ptr noundef @.str.9, ptr noundef @.str.10)
  %13 = load i32, ptr %2, align 4, !tbaa !4
  %14 = call align 8 ptr @llvm.threadlocal.address.p0(ptr align 8 @bench_key)
  %15 = load ptr, ptr %14, align 8, !tbaa !12
  %16 = call align 8 ptr @llvm.threadlocal.address.p0(ptr align 8 @bench_iv)
  %17 = load ptr, ptr %16, align 8, !tbaa !12
  call void @bench_aescbc_internal(i32 noundef %13, ptr noundef %15, i32 noundef 32, ptr noundef %17, ptr noundef @.str.11, ptr noundef @.str.12)
  ret void
}