; Function Attrs: nounwind uwtable
define dso_local void @bench_aescbc(i32 noundef %0) local_unnamed_addr #0 {
  %2 = tail call align 8 ptr @llvm.threadlocal.address.p0(ptr align 8 @bench_key)
  %3 = load ptr, ptr %2, align 8, !tbaa !8
  %4 = tail call align 8 ptr @llvm.threadlocal.address.p0(ptr align 8 @bench_iv)
  %5 = load ptr, ptr %4, align 8, !tbaa !8
  tail call fastcc void @bench_aescbc_internal(ptr noundef %3, i32 noundef 16, ptr noundef %5, ptr noundef nonnull @.str.7, ptr noundef nonnull @.str.8)
  %6 = load ptr, ptr %2, align 8, !tbaa !8
  %7 = load ptr, ptr %4, align 8, !tbaa !8
  tail call fastcc void @bench_aescbc_internal(ptr noundef %6, i32 noundef 24, ptr noundef %7, ptr noundef nonnull @.str.9, ptr noundef nonnull @.str.10)
  %8 = load ptr, ptr %2, align 8, !tbaa !8
  %9 = load ptr, ptr %4, align 8, !tbaa !8
  tail call fastcc void @bench_aescbc_internal(ptr noundef %8, i32 noundef 32, ptr noundef %9, ptr noundef nonnull @.str.11, ptr noundef nonnull @.str.12)
  ret void
}